; Function Attrs: nounwind uwtable
define dso_local range(i32 0, 44) i32 @curl_mime_name(ptr noundef %0, ptr noundef %1) local_unnamed_addr #0 {
  %.not = icmp eq ptr %0, null
  br i1 %.not, label %11, label %3

3:                                                ; preds = %2
  %4 = load ptr, ptr @Curl_cfree, align 8, !tbaa !29
  %5 = getelementptr inbounds nuw i8, ptr %0, i64 104
  %6 = load ptr, ptr %5, align 8, !tbaa !31
  tail call void %4(ptr noundef %6) #18
  store ptr null, ptr %5, align 8, !tbaa !31
  %.not9 = icmp eq ptr %1, null
  br i1 %.not9, label %10, label %7

7:                                                ; preds = %3
  %8 = load ptr, ptr @Curl_cstrdup, align 8, !tbaa !29
  %9 = tail call ptr %8(ptr noundef nonnull %1) #18
  store ptr %9, ptr %5, align 8, !tbaa !31
  %.not10 = icmp eq ptr %9, null
  br i1 %.not10, label %11, label %10

10:                                               ; preds = %7, %3
  br label %11

11:                                               ; preds = %7, %2, %10
  %.0 = phi i32 [ 0, %10 ], [ 43, %2 ], [ 27, %7 ]
  ret i32 %.0
}